	.syntax unified
	.cpu cortex-m4
	.eabi_attribute 27, 1
	.eabi_attribute 28, 1
	.fpu fpv4-sp-d16
	.eabi_attribute 20, 1
	.eabi_attribute 21, 1
	.eabi_attribute 23, 3
	.eabi_attribute 24, 1
	.eabi_attribute 25, 1
	.eabi_attribute 26, 1
	.eabi_attribute 30, 6
	.eabi_attribute 34, 1
	.eabi_attribute 18, 4
	.thumb
	.file	"main.c"
	.text
.Ltext0:
	.cfi_sections	.debug_frame
	.bss
	.align	2
g1:
	.space	4
	.global	g2
	.section	.rodata
	.align	2
	.type	g2, %object
	.size	g2, 4
g2:
	.word	45
	.global	g3
	.data
	.type	g3, %object
	.size	g3, 1
g3:
	.byte	12
	.global	g4
	.bss
	.type	g4, %object
	.size	g4, 1
g4:
	.space	1
	.text
	.align	2
	.global	main
	.thumb
	.thumb_func
	.type	main, %function
main:
.LFB0:
	.file 1 "main.c"
	.loc 1 33 0
	.cfi_startproc
	@ args = 0, pretend = 0, frame = 8
	@ frame_needed = 1, uses_anonymous_args = 0
	push	{r4, r7, lr}
	.cfi_def_cfa_offset 12
	.cfi_offset 4, -12
	.cfi_offset 7, -8
	.cfi_offset 14, -4
	sub	sp, sp, #12
	.cfi_def_cfa_offset 24
	add	r7, sp, #0
	.cfi_def_cfa_register 7
	.loc 1 36 0
	movs	r3, #12
	str	r3, [r7]
	.loc 1 38 0
	movs	r3, #45
	mov	r2, r3
	mov	r3, r2
	lsls	r3, r3, #2
	add	r3, r3, r2
	lsls	r3, r3, #1
	mov	r0, r3
	bl	malloc
	mov	r3, r0
	str	r3, [r7, #4]
	.loc 1 40 0
	ldr	r3, [r7, #4]
	cmp	r3, #0
	bne	.L2
	.loc 1 42 0
	mov	r3, #-1
	b	.L3
.L2:
	.loc 1 45 0
	movs	r4, #0
	b	.L4
.L5:
	.loc 1 47 0 discriminator 3
	ldr	r0, [r7, #4]
	bl	func
	mov	r2, r0
	ldr	r3, .L6
	str	r2, [r3]
	.loc 1 45 0 discriminator 3
	ldr	r3, [r7]
	adds	r3, r3, #1
	str	r3, [r7]
.L4:
	.loc 1 45 0 is_stmt 0 discriminator 1
	movs	r3, #45
	cmp	r4, r3
	blt	.L5
	.loc 1 50 0 is_stmt 1
	movs	r3, #0
.L3:
	.loc 1 51 0
	mov	r0, r3
	adds	r7, r7, #12
	.cfi_def_cfa_offset 12
	mov	sp, r7
	.cfi_def_cfa_register 13
	@ sp needed
	pop	{r4, r7, pc}
.L7:
	.align	2
.L6:
	.word	g1
	.cfi_endproc
.LFE0:
	.size	main, .-main
.Letext0: